target datalayout = "e-m:e-p270:32:32-p271:32:32-p272:64:64-i64:64-i128:128-f80:128-n8:16:32:64-S128"
target triple = "x86_64-pc-linux-gnu"

%struct.Qureg = type { i32, i32, i32, i64, i64, i32, i32, %struct.ComplexArray, %struct.ComplexArray, %struct.ComplexArray, ptr, ptr, ptr, ptr, ptr, ptr }
%struct.ComplexArray = type { ptr, ptr }
%struct.PauliHamil = type { ptr, ptr, i32, i32 }

; Function Attrs: nounwind uwtable
define void @applySymmetrizedTrotterCircuit(ptr noundef byval(%struct.Qureg) align 8 %0, ptr noundef byval(%struct.PauliHamil) align 8 %1, double noundef %2, i32 noundef %3) #0 {
  %5 = alloca double, align 8
  %6 = alloca i32, align 4
  %7 = alloca double, align 8
  %8 = alloca i32, align 4
  store double %2, ptr %5, align 8, !tbaa !18
  store i32 %3, ptr %6, align 4, !tbaa !9
  %9 = load i32, ptr %6, align 4, !tbaa !9
  %10 = icmp eq i32 %9, 1
  br i1 %10, label %11, label %13

11:                                               ; preds = %4
  %12 = load double, ptr %5, align 8, !tbaa !18
  call void @applyExponentiatedPauliHamil(ptr noundef byval(%struct.Qureg) align 8 %0, ptr noundef byval(%struct.PauliHamil) align 8 %1, double noundef %12, i32 noundef 0)
  br label %53

13:                                               ; preds = %4
  %14 = load i32, ptr %6, align 4, !tbaa !9
  %15 = icmp eq i32 %14, 2
  br i1 %15, label %16, label %21

16:                                               ; preds = %13
  %17 = load double, ptr %5, align 8, !tbaa !18
  %18 = fdiv double %17, 2.000000e+00
  call void @applyExponentiatedPauliHamil(ptr noundef byval(%struct.Qureg) align 8 %0, ptr noundef byval(%struct.PauliHamil) align 8 %1, double noundef %18, i32 noundef 0)
  %19 = load double, ptr %5, align 8, !tbaa !18
  %20 = fdiv double %19, 2.000000e+00
  call void @applyExponentiatedPauliHamil(ptr noundef byval(%struct.Qureg) align 8 %0, ptr noundef byval(%struct.PauliHamil) align 8 %1, double noundef %20, i32 noundef 1)
  br label %52

21:                                               ; preds = %13
  call void @llvm.lifetime.start.p0(i64 8, ptr %7) #8
  %22 = load i32, ptr %6, align 4, !tbaa !9
  %23 = sub nsw i32 %22, 1
  %24 = sitofp i32 %23 to double
  %25 = fdiv double 1.000000e+00, %24
  %26 = call double @pow(double noundef 4.000000e+00, double noundef %25) #8, !tbaa !9
  %27 = fsub double 4.000000e+00, %26
  %28 = fdiv double 1.000000e+00, %27
  store double %28, ptr %7, align 8, !tbaa !18
  call void @llvm.lifetime.start.p0(i64 4, ptr %8) #8
  %29 = load i32, ptr %6, align 4, !tbaa !9
  %30 = sub nsw i32 %29, 2
  store i32 %30, ptr %8, align 4, !tbaa !9
  %31 = load double, ptr %7, align 8, !tbaa !18
  %32 = load double, ptr %5, align 8, !tbaa !18
  %33 = fmul double %31, %32
  %34 = load i32, ptr %8, align 4, !tbaa !9
  call void @applySymmetrizedTrotterCircuit(ptr noundef byval(%struct.Qureg) align 8 %0, ptr noundef byval(%struct.PauliHamil) align 8 %1, double noundef %33, i32 noundef %34)
  %35 = load double, ptr %7, align 8, !tbaa !18
  %36 = load double, ptr %5, align 8, !tbaa !18
  %37 = fmul double %35, %36
  %38 = load i32, ptr %8, align 4, !tbaa !9
  call void @applySymmetrizedTrotterCircuit(ptr noundef byval(%struct.Qureg) align 8 %0, ptr noundef byval(%struct.PauliHamil) align 8 %1, double noundef %37, i32 noundef %38)
  %39 = load double, ptr %7, align 8, !tbaa !18
  %40 = call double @llvm.fmuladd.f64(double -4.000000e+00, double %39, double 1.000000e+00)
  %41 = load double, ptr %5, align 8, !tbaa !18
  %42 = fmul double %40, %41
  %43 = load i32, ptr %8, align 4, !tbaa !9
  call void @applySymmetrizedTrotterCircuit(ptr noundef byval(%struct.Qureg) align 8 %0, ptr noundef byval(%struct.PauliHamil) align 8 %1, double noundef %42, i32 noundef %43)
  %44 = load double, ptr %7, align 8, !tbaa !18
  %45 = load double, ptr %5, align 8, !tbaa !18
  %46 = fmul double %44, %45
  %47 = load i32, ptr %8, align 4, !tbaa !9
  call void @applySymmetrizedTrotterCircuit(ptr noundef byval(%struct.Qureg) align 8 %0, ptr noundef byval(%struct.PauliHamil) align 8 %1, double noundef %46, i32 noundef %47)
  %48 = load double, ptr %7, align 8, !tbaa !18
  %49 = load double, ptr %5, align 8, !tbaa !18
  %50 = fmul double %48, %49
  %51 = load i32, ptr %8, align 4, !tbaa !9
  call void @applySymmetrizedTrotterCircuit(ptr noundef byval(%struct.Qureg) align 8 %0, ptr noundef byval(%struct.PauliHamil) align 8 %1, double noundef %50, i32 noundef %51)
  call void @llvm.lifetime.end.p0(i64 4, ptr %8) #8
  call void @llvm.lifetime.end.p0(i64 8, ptr %7) #8
  br label %52

52:                                               ; preds = %21, %16
  br label %53

53:                                               ; preds = %52, %11
  ret void
}