; Function Attrs: nounwind uwtable
define void @applySymmetrizedTrotterCircuit(ptr noundef readonly byval(%struct.Qureg) align 8 captures(none) %0, ptr noundef readonly byval(%struct.PauliHamil) align 8 captures(none) %1, double noundef %2, i32 noundef %3) local_unnamed_addr #11 {
  br label %tailrecurse

tailrecurse:                                      ; preds = %8, %4
  %.tr22 = phi double [ %2, %4 ], [ %15, %8 ]
  %.tr23 = phi i32 [ %3, %4 ], [ %14, %8 ]
  switch i32 %.tr23, label %8 [
    i32 1, label %5
    i32 2, label %6
  ]

5:                                                ; preds = %tailrecurse
  tail call void @applyExponentiatedPauliHamil(ptr noundef nonnull byval(%struct.Qureg) align 8 %0, ptr noundef nonnull byval(%struct.PauliHamil) align 8 %1, double noundef %.tr22, i32 noundef 0)
  br label %18

6:                                                ; preds = %tailrecurse
  %7 = fmul double %.tr22, 5.000000e-01
  tail call void @applyExponentiatedPauliHamil(ptr noundef nonnull byval(%struct.Qureg) align 8 %0, ptr noundef nonnull byval(%struct.PauliHamil) align 8 %1, double noundef %7, i32 noundef 0)
  tail call void @applyExponentiatedPauliHamil(ptr noundef nonnull byval(%struct.Qureg) align 8 %0, ptr noundef nonnull byval(%struct.PauliHamil) align 8 %1, double noundef %7, i32 noundef 1)
  br label %18

8:                                                ; preds = %tailrecurse
  %9 = add nsw i32 %.tr23, -1
  %10 = sitofp i32 %9 to double
  %11 = fdiv double 1.000000e+00, %10
  %mul = fmul double %11, 2.000000e+00
  %exp2 = tail call double @exp2(double %mul) #22
  %12 = fsub double 4.000000e+00, %exp2
  %13 = fdiv double 1.000000e+00, %12
  %14 = add nsw i32 %.tr23, -2
  %15 = fmul double %.tr22, %13
  tail call void @applySymmetrizedTrotterCircuit(ptr noundef nonnull byval(%struct.Qureg) align 8 %0, ptr noundef nonnull byval(%struct.PauliHamil) align 8 %1, double noundef %15, i32 noundef %14)
  tail call void @applySymmetrizedTrotterCircuit(ptr noundef nonnull byval(%struct.Qureg) align 8 %0, ptr noundef nonnull byval(%struct.PauliHamil) align 8 %1, double noundef %15, i32 noundef %14)
  %16 = tail call double @llvm.fmuladd.f64(double %13, double -4.000000e+00, double 1.000000e+00)
  %17 = fmul double %.tr22, %16
  tail call void @applySymmetrizedTrotterCircuit(ptr noundef nonnull byval(%struct.Qureg) align 8 %0, ptr noundef nonnull byval(%struct.PauliHamil) align 8 %1, double noundef %17, i32 noundef %14)
  tail call void @applySymmetrizedTrotterCircuit(ptr noundef nonnull byval(%struct.Qureg) align 8 %0, ptr noundef nonnull byval(%struct.PauliHamil) align 8 %1, double noundef %15, i32 noundef %14)
  br label %tailrecurse

18:                                               ; preds = %6, %5
  ret void
}